; ModuleID = '7/86.c'
source_filename = "7/86.c"
target datalayout = "e-m:e-p270:32:32-p271:32:32-p272:64:64-i64:64-f80:128-n8:16:32:64-S128"
target triple = "x86_64-pc-linux-gnu"

@.str = private unnamed_addr constant [3 x i8] c"%c\00", align 1

; Function Attrs: noinline nounwind uwtable
define dso_local i32 @main() #0 {
  %1 = alloca i32, align 4
  %2 = alloca i32, align 4
  %3 = alloca i32, align 4
  %4 = alloca i32, align 4
  %5 = alloca i32, align 4
  %6 = alloca i32, align 4
  %7 = alloca [257 x i8], align 16
  %8 = alloca [257 x i8], align 16
  %9 = alloca [257 x i8], align 16
  store i32 0, i32* %1, align 4
  %10 = getelementptr inbounds [257 x i8], [257 x i8]* %7, i64 0, i64 0
  %11 = call i32 (i8*, ...) bitcast (i32 (...)* @gets to i32 (i8*, ...)*)(i8* %10)
  %12 = getelementptr inbounds [257 x i8], [257 x i8]* %8, i64 0, i64 0
  %13 = call i32 (i8*, ...) bitcast (i32 (...)* @gets to i32 (i8*, ...)*)(i8* %12)
  %14 = getelementptr inbounds [257 x i8], [257 x i8]* %9, i64 0, i64 0
  %15 = call i32 (i8*, ...) bitcast (i32 (...)* @gets to i32 (i8*, ...)*)(i8* %14)
  %16 = getelementptr inbounds [257 x i8], [257 x i8]* %7, i64 0, i64 0
  %17 = call i64 @strlen(i8* %16) #3
  %18 = trunc i64 %17 to i32
  store i32 %18, i32* %5, align 4
  %19 = getelementptr inbounds [257 x i8], [257 x i8]* %8, i64 0, i64 0
  %20 = call i64 @strlen(i8* %19) #3
  %21 = trunc i64 %20 to i32
  store i32 %21, i32* %6, align 4
  store i32 0, i32* %2, align 4
  br label %22

22:                                               ; preds = %88, %0
  %23 = load i32, i32* %2, align 4
  %24 = load i32, i32* %5, align 4
  %25 = icmp slt i32 %23, %24
  br i1 %25, label %26, label %91

26:                                               ; preds = %22
  %27 = load i32, i32* %2, align 4
  %28 = sext i32 %27 to i64
  %29 = getelementptr inbounds [257 x i8], [257 x i8]* %7, i64 0, i64 %28
  %30 = load i8, i8* %29, align 1
  %31 = sext i8 %30 to i32
  %32 = getelementptr inbounds [257 x i8], [257 x i8]* %8, i64 0, i64 0
  %33 = load i8, i8* %32, align 16
  %34 = sext i8 %33 to i32
  %35 = icmp eq i32 %31, %34
  br i1 %35, label %36, label %87

36:                                               ; preds = %26
  store i32 0, i32* %3, align 4
  br label %37

37:                                               ; preds = %57, %36
  %38 = load i32, i32* %2, align 4
  %39 = load i32, i32* %3, align 4
  %40 = add nsw i32 %38, %39
  %41 = sext i32 %40 to i64
  %42 = getelementptr inbounds [257 x i8], [257 x i8]* %7, i64 0, i64 %41
  %43 = load i8, i8* %42, align 1
  %44 = sext i8 %43 to i32
  %45 = load i32, i32* %3, align 4
  %46 = sext i32 %45 to i64
  %47 = getelementptr inbounds [257 x i8], [257 x i8]* %8, i64 0, i64 %46
  %48 = load i8, i8* %47, align 1
  %49 = sext i8 %48 to i32
  %50 = icmp eq i32 %44, %49
  br i1 %50, label %51, label %55

51:                                               ; preds = %37
  %52 = load i32, i32* %3, align 4
  %53 = load i32, i32* %6, align 4
  %54 = icmp slt i32 %52, %53
  br label %55

55:                                               ; preds = %51, %37
  %56 = phi i1 [ false, %37 ], [ %54, %51 ]
  br i1 %56, label %57, label %60

57:                                               ; preds = %55
  %58 = load i32, i32* %3, align 4
  %59 = add nsw i32 %58, 1
  store i32 %59, i32* %3, align 4
  br label %37

60:                                               ; preds = %55
  %61 = load i32, i32* %3, align 4
  %62 = load i32, i32* %6, align 4
  %63 = icmp eq i32 %61, %62
  br i1 %63, label %64, label %86

64:                                               ; preds = %60
  %65 = load i32, i32* %2, align 4
  store i32 %65, i32* %4, align 4
  br label %66

66:                                               ; preds = %82, %64
  %67 = load i32, i32* %4, align 4
  %68 = load i32, i32* %2, align 4
  %69 = load i32, i32* %6, align 4
  %70 = add nsw i32 %68, %69
  %71 = icmp slt i32 %67, %70
  br i1 %71, label %72, label %85

72:                                               ; preds = %66
  %73 = load i32, i32* %4, align 4
  %74 = load i32, i32* %2, align 4
  %75 = sub nsw i32 %73, %74
  %76 = sext i32 %75 to i64
  %77 = getelementptr inbounds [257 x i8], [257 x i8]* %9, i64 0, i64 %76
  %78 = load i8, i8* %77, align 1
  %79 = load i32, i32* %4, align 4
  %80 = sext i32 %79 to i64
  %81 = getelementptr inbounds [257 x i8], [257 x i8]* %7, i64 0, i64 %80
  store i8 %78, i8* %81, align 1
  br label %82

82:                                               ; preds = %72
  %83 = load i32, i32* %4, align 4
  %84 = add nsw i32 %83, 1
  store i32 %84, i32* %4, align 4
  br label %66

85:                                               ; preds = %66
  br label %91

86:                                               ; preds = %60
  br label %87

87:                                               ; preds = %86, %26
  br label %88

88:                                               ; preds = %87
  %89 = load i32, i32* %2, align 4
  %90 = add nsw i32 %89, 1
  store i32 %90, i32* %2, align 4
  br label %22

91:                                               ; preds = %85, %22
  store i32 0, i32* %2, align 4
  br label %92

92:                                               ; preds = %103, %91
  %93 = load i32, i32* %2, align 4
  %94 = load i32, i32* %5, align 4
  %95 = icmp slt i32 %93, %94
  br i1 %95, label %96, label %106

96:                                               ; preds = %92
  %97 = load i32, i32* %2, align 4
  %98 = sext i32 %97 to i64
  %99 = getelementptr inbounds [257 x i8], [257 x i8]* %7, i64 0, i64 %98
  %100 = load i8, i8* %99, align 1
  %101 = sext i8 %100 to i32
  %102 = call i32 (i8*, ...) @printf(i8* getelementptr inbounds ([3 x i8], [3 x i8]* @.str, i64 0, i64 0), i32 %101)
  br label %103

103:                                              ; preds = %96
  %104 = load i32, i32* %2, align 4
  %105 = add nsw i32 %104, 1
  store i32 %105, i32* %2, align 4
  br label %92

106:                                              ; preds = %92
  ret i32 0
}

declare dso_local i32 @gets(...) #1

; Function Attrs: nounwind readonly
declare dso_local i64 @strlen(i8*) #2

declare dso_local i32 @printf(i8*, ...) #1


!llvm.module.flags = !{!0}
!llvm.ident = !{!1}

!0 = !{i32 1, !"wchar_size", i32 4}
!1 = !{!"clang version 10.0.0-4ubuntu1 "}
