; ModuleID = 'source-C-CXX/6/86.c'
source_filename = "source-C-CXX/6/86.c"
target datalayout = "e-m:e-p270:32:32-p271:32:32-p272:64:64-i64:64-f80:128-n8:16:32:64-S128"
target triple = "x86_64-pc-linux-gnu"

; Function Attrs: nounwind sspstrong uwtable
define dso_local i32 @main() local_unnamed_addr #0 {
  %1 = alloca [257 x i8], align 16
  %2 = alloca [257 x i8], align 16
  %3 = alloca [257 x i8], align 16
  %4 = getelementptr inbounds [257 x i8], [257 x i8]* %3, i64 0, i64 0
  %5 = getelementptr inbounds [257 x i8], [257 x i8]* %1, i64 0, i64 0
  call void @llvm.lifetime.start.p0i8(i64 257, i8* nonnull %5) #7
  %6 = getelementptr inbounds [257 x i8], [257 x i8]* %2, i64 0, i64 0
  call void @llvm.lifetime.start.p0i8(i64 257, i8* nonnull %6) #7
  %7 = getelementptr inbounds [257 x i8], [257 x i8]* %3, i64 0, i64 0
  call void @llvm.lifetime.start.p0i8(i64 257, i8* nonnull %7) #7
  %8 = call i32 (i8*, ...) bitcast (i32 (...)* @gets to i32 (i8*, ...)*)(i8* nonnull %5) #7
  %9 = call i32 (i8*, ...) bitcast (i32 (...)* @gets to i32 (i8*, ...)*)(i8* nonnull %6) #7
  %10 = call i32 (i8*, ...) bitcast (i32 (...)* @gets to i32 (i8*, ...)*)(i8* nonnull %7) #7
  %11 = call i64 @strlen(i8* noundef nonnull %5) #8
  %12 = trunc i64 %11 to i32
  %13 = call i64 @strlen(i8* noundef nonnull %6) #8
  %14 = trunc i64 %13 to i32
  %15 = load i8, i8* %6, align 16
  %16 = icmp sgt i32 %12, 0
  br i1 %16, label %17, label %66

17:                                               ; preds = %0
  %18 = shl i64 %13, 32
  %19 = ashr exact i64 %18, 32
  %20 = and i64 %11, 4294967295
  br label %21

21:                                               ; preds = %17, %52
  %22 = phi i64 [ 0, %17 ], [ %53, %52 ]
  %23 = getelementptr [257 x i8], [257 x i8]* %1, i64 0, i64 %22
  %24 = load i8, i8* %23, align 1, !tbaa !5
  %25 = icmp eq i8 %24, %15
  br i1 %25, label %26, label %52

26:                                               ; preds = %21, %26
  %27 = phi i64 [ %36, %26 ], [ 0, %21 ]
  %28 = add nuw nsw i64 %27, %22
  %29 = getelementptr inbounds [257 x i8], [257 x i8]* %1, i64 0, i64 %28
  %30 = load i8, i8* %29, align 1, !tbaa !5
  %31 = getelementptr inbounds [257 x i8], [257 x i8]* %2, i64 0, i64 %27
  %32 = load i8, i8* %31, align 1, !tbaa !5
  %33 = icmp eq i8 %30, %32
  %34 = icmp slt i64 %27, %19
  %35 = select i1 %33, i1 %34, i1 false
  %36 = add nuw nsw i64 %27, 1
  br i1 %35, label %26, label %37, !llvm.loop !8

37:                                               ; preds = %26
  %38 = trunc i64 %27 to i32
  %39 = icmp eq i32 %38, %14
  br i1 %39, label %40, label %52

40:                                               ; preds = %37
  %41 = trunc i64 %22 to i32
  %42 = icmp sgt i32 %14, 0
  br i1 %42, label %43, label %55

43:                                               ; preds = %40
  %44 = getelementptr [257 x i8], [257 x i8]* %1, i64 0, i64 %22
  %45 = add i32 %14, %41
  %46 = add nuw nsw i32 %41, 1
  %47 = call i32 @llvm.smax.i32(i32 %45, i32 %46)
  %48 = xor i32 %41, -1
  %49 = add i32 %47, %48
  %50 = zext i32 %49 to i64
  %51 = add nuw nsw i64 %50, 1
  call void @llvm.memcpy.p0i8.p0i8.i64(i8* noundef nonnull align 1 %44, i8* noundef nonnull align 16 %4, i64 %51, i1 false)
  br label %55

52:                                               ; preds = %21, %37
  %53 = add nuw nsw i64 %22, 1
  %54 = icmp eq i64 %53, %20
  br i1 %54, label %55, label %21, !llvm.loop !10

55:                                               ; preds = %52, %43, %40
  br i1 %16, label %56, label %66

56:                                               ; preds = %55
  %57 = and i64 %11, 4294967295
  br label %58

58:                                               ; preds = %56, %58
  %59 = phi i64 [ 0, %56 ], [ %64, %58 ]
  %60 = getelementptr inbounds [257 x i8], [257 x i8]* %1, i64 0, i64 %59
  %61 = load i8, i8* %60, align 1, !tbaa !5
  %62 = sext i8 %61 to i32
  %63 = call i32 @putchar(i32 %62)
  %64 = add nuw nsw i64 %59, 1
  %65 = icmp eq i64 %64, %57
  br i1 %65, label %66, label %58, !llvm.loop !11

66:                                               ; preds = %58, %0, %55
  call void @llvm.lifetime.end.p0i8(i64 257, i8* nonnull %7) #7
  call void @llvm.lifetime.end.p0i8(i64 257, i8* nonnull %6) #7
  call void @llvm.lifetime.end.p0i8(i64 257, i8* nonnull %5) #7
  ret i32 0
}

; Function Attrs: argmemonly mustprogress nofree nosync nounwind willreturn
declare void @llvm.lifetime.start.p0i8(i64 immarg, i8* nocapture) #1

declare i32 @gets(...) local_unnamed_addr #2

; Function Attrs: argmemonly mustprogress nofree nounwind readonly willreturn
declare i64 @strlen(i8* nocapture) local_unnamed_addr #3

; Function Attrs: argmemonly mustprogress nofree nosync nounwind willreturn
declare void @llvm.lifetime.end.p0i8(i64 immarg, i8* nocapture) #1

; Function Attrs: nofree nounwind
declare noundef i32 @putchar(i32 noundef) local_unnamed_addr #4

; Function Attrs: nofree nosync nounwind readnone speculatable willreturn
declare i32 @llvm.smax.i32(i32, i32) #5

; Function Attrs: argmemonly nofree nounwind willreturn
declare void @llvm.memcpy.p0i8.p0i8.i64(i8* noalias nocapture writeonly, i8* noalias nocapture readonly, i64, i1 immarg) #6


!llvm.module.flags = !{!0, !1, !2, !3}
!llvm.ident = !{!4}

!0 = !{i32 1, !"wchar_size", i32 4}
!1 = !{i32 7, !"PIC Level", i32 2}
!2 = !{i32 7, !"PIE Level", i32 2}
!3 = !{i32 7, !"uwtable", i32 1}
!4 = !{!"clang version 13.0.0"}
!5 = !{!6, !6, i64 0}
!6 = !{!"omnipotent char", !7, i64 0}
!7 = !{!"Simple C/C++ TBAA"}
!8 = distinct !{!8, !9}
!9 = !{!"llvm.loop.mustprogress"}
!10 = distinct !{!10, !9}
!11 = distinct !{!11, !9}
